target datalayout = "e-m:e-p270:32:32-p271:32:32-p272:64:64-i64:64-i128:128-f80:128-n8:16:32:64-S128"
target triple = "x86_64-pc-linux-gnu"

%struct._php_stream_ops = type { ptr, ptr, ptr, ptr, ptr, ptr, ptr, ptr, ptr }
%struct.php_file_globals = type { i32, i64, i8, i64, ptr, ptr, ptr, ptr, ptr, ptr, ptr, i32, %struct.hostent, ptr, i64 }
%struct.hostent = type { ptr, ptr, i32, i32, ptr }
%struct._php_netstream_data_t = type { i32, i8, %struct.timeval, i8, i64 }
%struct.timeval = type { i64, i64 }

@php_stream_socket_ops = dso_local constant %struct._php_stream_ops { ptr @php_sockop_write, ptr @php_sockop_read, ptr @php_sockop_close, ptr @php_sockop_flush, ptr @.str.1, ptr null, ptr @php_sockop_cast, ptr @php_sockop_stat, ptr @php_tcp_sockop_set_option }, align 8
@.str.2 = private unnamed_addr constant [4 x i8] c"tcp\00", align 1
@.str.3 = private unnamed_addr constant [4 x i8] c"udp\00", align 1
@php_stream_udp_socket_ops = internal constant %struct._php_stream_ops { ptr @php_sockop_write, ptr @php_sockop_read, ptr @php_sockop_close, ptr @php_sockop_flush, ptr @.str.26, ptr null, ptr @php_sockop_cast, ptr @php_sockop_stat, ptr @php_tcp_sockop_set_option }, align 8
@.str.4 = private unnamed_addr constant [5 x i8] c"unix\00", align 1
@php_stream_unix_socket_ops = internal constant %struct._php_stream_ops { ptr @php_sockop_write, ptr @php_sockop_read, ptr @php_sockop_close, ptr @php_sockop_flush, ptr @.str.27, ptr null, ptr @php_sockop_cast, ptr @php_sockop_stat, ptr @php_tcp_sockop_set_option }, align 8
@.str.5 = private unnamed_addr constant [4 x i8] c"udg\00", align 1
@php_stream_unixdg_socket_ops = internal constant %struct._php_stream_ops { ptr @php_sockop_write, ptr @php_sockop_read, ptr @php_sockop_close, ptr @php_sockop_flush, ptr @.str.28, ptr null, ptr @php_sockop_cast, ptr @php_sockop_stat, ptr @php_tcp_sockop_set_option }, align 8
@file_globals = external global %struct.php_file_globals, align 8
@.str.6 = private unnamed_addr constant [3 x i8] c"r+\00", align 1

; Function Attrs: nounwind uwtable
define dso_local ptr @php_stream_generic_socket_factory(ptr noundef %0, i64 noundef %1, ptr noundef %2, i64 noundef %3, ptr noundef %4, i32 noundef %5, i32 noundef %6, ptr noundef %7, ptr noundef %8) #0 {
  %10 = alloca ptr, align 8
  %11 = alloca ptr, align 8
  %12 = alloca i64, align 8
  %13 = alloca ptr, align 8
  %14 = alloca i64, align 8
  %15 = alloca ptr, align 8
  %16 = alloca i32, align 4
  %17 = alloca i32, align 4
  %18 = alloca ptr, align 8
  %19 = alloca ptr, align 8
  %20 = alloca ptr, align 8
  %21 = alloca ptr, align 8
  %22 = alloca ptr, align 8
  %23 = alloca i32, align 4
  store ptr %0, ptr %11, align 8, !tbaa !9
  store i64 %1, ptr %12, align 8, !tbaa !11
  store ptr %2, ptr %13, align 8, !tbaa !9
  store i64 %3, ptr %14, align 8, !tbaa !11
  store ptr %4, ptr %15, align 8, !tbaa !9
  store i32 %5, ptr %16, align 4, !tbaa !33
  store i32 %6, ptr %17, align 4, !tbaa !33
  store ptr %7, ptr %18, align 8, !tbaa !30
  store ptr %8, ptr %19, align 8, !tbaa !80
  call void @llvm.lifetime.start.p0(i64 8, ptr %20) #12
  store ptr null, ptr %20, align 8, !tbaa !4
  call void @llvm.lifetime.start.p0(i64 8, ptr %21) #12
  call void @llvm.lifetime.start.p0(i64 8, ptr %22) #12
  %24 = load ptr, ptr %11, align 8, !tbaa !9
  %25 = load i64, ptr %12, align 8, !tbaa !11
  %26 = call i32 @strncmp(ptr noundef %24, ptr noundef @.str.2, i64 noundef %25) #14
  %27 = icmp eq i32 %26, 0
  br i1 %27, label %28, label %29

28:                                               ; preds = %9
  store ptr @php_stream_socket_ops, ptr %22, align 8, !tbaa !81
  br label %51

29:                                               ; preds = %9
  %30 = load ptr, ptr %11, align 8, !tbaa !9
  %31 = load i64, ptr %12, align 8, !tbaa !11
  %32 = call i32 @strncmp(ptr noundef %30, ptr noundef @.str.3, i64 noundef %31) #14
  %33 = icmp eq i32 %32, 0
  br i1 %33, label %34, label %35

34:                                               ; preds = %29
  store ptr @php_stream_udp_socket_ops, ptr %22, align 8, !tbaa !81
  br label %50

35:                                               ; preds = %29
  %36 = load ptr, ptr %11, align 8, !tbaa !9
  %37 = load i64, ptr %12, align 8, !tbaa !11
  %38 = call i32 @strncmp(ptr noundef %36, ptr noundef @.str.4, i64 noundef %37) #14
  %39 = icmp eq i32 %38, 0
  br i1 %39, label %40, label %41

40:                                               ; preds = %35
  store ptr @php_stream_unix_socket_ops, ptr %22, align 8, !tbaa !81
  br label %49

41:                                               ; preds = %35
  %42 = load ptr, ptr %11, align 8, !tbaa !9
  %43 = load i64, ptr %12, align 8, !tbaa !11
  %44 = call i32 @strncmp(ptr noundef %42, ptr noundef @.str.5, i64 noundef %43) #14
  %45 = icmp eq i32 %44, 0
  br i1 %45, label %46, label %47

46:                                               ; preds = %41
  store ptr @php_stream_unixdg_socket_ops, ptr %22, align 8, !tbaa !81
  br label %48

47:                                               ; preds = %41
  store ptr null, ptr %10, align 8
  store i32 1, ptr %23, align 4
  br label %92

48:                                               ; preds = %46
  br label %49

49:                                               ; preds = %48, %40
  br label %50

50:                                               ; preds = %49, %34
  br label %51

51:                                               ; preds = %50, %28
  %52 = load ptr, ptr %15, align 8, !tbaa !9
  %53 = icmp ne ptr %52, null
  br i1 %53, label %54, label %55

54:                                               ; preds = %51
  br i1 true, label %56, label %58

55:                                               ; preds = %51
  br i1 false, label %56, label %58

56:                                               ; preds = %55, %54
  %57 = call noalias ptr @__zend_malloc(i64 noundef 40) #15
  br label %60

58:                                               ; preds = %55, %54
  %59 = call noalias ptr @_emalloc_40()
  br label %60

60:                                               ; preds = %58, %56
  %61 = phi ptr [ %57, %56 ], [ %59, %58 ]
  store ptr %61, ptr %21, align 8, !tbaa !24
  %62 = load ptr, ptr %21, align 8, !tbaa !24
  call void @llvm.memset.p0.i64(ptr align 8 %62, i8 0, i64 40, i1 false)
  %63 = load ptr, ptr %21, align 8, !tbaa !24
  %64 = getelementptr inbounds nuw %struct._php_netstream_data_t, ptr %63, i32 0, i32 1
  store i8 1, ptr %64, align 4, !tbaa !32
  %65 = load i64, ptr getelementptr inbounds nuw (%struct.php_file_globals, ptr @file_globals, i32 0, i32 3), align 8, !tbaa !56
  %66 = load ptr, ptr %21, align 8, !tbaa !24
  %67 = getelementptr inbounds nuw %struct._php_netstream_data_t, ptr %66, i32 0, i32 2
  %68 = getelementptr inbounds nuw %struct.timeval, ptr %67, i32 0, i32 0
  store i64 %65, ptr %68, align 8, !tbaa !29
  %69 = load ptr, ptr %21, align 8, !tbaa !24
  %70 = getelementptr inbounds nuw %struct._php_netstream_data_t, ptr %69, i32 0, i32 2
  %71 = getelementptr inbounds nuw %struct.timeval, ptr %70, i32 0, i32 1
  store i64 0, ptr %71, align 8, !tbaa !51
  %72 = load ptr, ptr %21, align 8, !tbaa !24
  %73 = getelementptr inbounds nuw %struct._php_netstream_data_t, ptr %72, i32 0, i32 0
  store i32 -1, ptr %73, align 8, !tbaa !26
  %74 = load ptr, ptr %22, align 8, !tbaa !81
  %75 = load ptr, ptr %21, align 8, !tbaa !24
  %76 = load ptr, ptr %15, align 8, !tbaa !9
  %77 = call ptr @_php_stream_alloc(ptr noundef %74, ptr noundef %75, ptr noundef %76, ptr noundef @.str.6)
  store ptr %77, ptr %20, align 8, !tbaa !4
  %78 = load ptr, ptr %20, align 8, !tbaa !4
  %79 = icmp eq ptr %78, null
  br i1 %79, label %80, label %90

80:                                               ; preds = %60
  %81 = load ptr, ptr %15, align 8, !tbaa !9
  %82 = icmp ne ptr %81, null
  br i1 %82, label %83, label %84

83:                                               ; preds = %80
  br i1 true, label %85, label %87

84:                                               ; preds = %80
  br i1 false, label %85, label %87

85:                                               ; preds = %84, %83
  %86 = load ptr, ptr %21, align 8, !tbaa !24
  call void @free(ptr noundef %86) #12
  br label %89

87:                                               ; preds = %84, %83
  %88 = load ptr, ptr %21, align 8, !tbaa !24
  call void @_efree(ptr noundef %88)
  br label %89

89:                                               ; preds = %87, %85
  store ptr null, ptr %10, align 8
  store i32 1, ptr %23, align 4
  br label %92

90:                                               ; preds = %60
  %91 = load ptr, ptr %20, align 8, !tbaa !4
  store ptr %91, ptr %10, align 8
  store i32 1, ptr %23, align 4
  br label %92

92:                                               ; preds = %90, %89, %47
  call void @llvm.lifetime.end.p0(i64 8, ptr %22) #12
  call void @llvm.lifetime.end.p0(i64 8, ptr %21) #12
  call void @llvm.lifetime.end.p0(i64 8, ptr %20) #12
  %93 = load ptr, ptr %10, align 8
  ret ptr %93
}