; Function Attrs: nounwind uwtable
define dso_local ptr @php_stream_generic_socket_factory(ptr noundef readonly captures(none) %0, i64 noundef %1, ptr noundef readnone captures(none) %2, i64 noundef %3, ptr noundef %4, i32 noundef %5, i32 noundef %6, ptr noundef readnone captures(none) %7, ptr noundef readnone captures(none) %8) local_unnamed_addr #0 {
  %10 = tail call i32 @strncmp(ptr noundef %0, ptr noundef nonnull @.str.2, i64 noundef %1) #17
  %11 = icmp eq i32 %10, 0
  br i1 %11, label %21, label %12

12:                                               ; preds = %9
  %13 = tail call i32 @strncmp(ptr noundef %0, ptr noundef nonnull @.str.3, i64 noundef %1) #17
  %14 = icmp eq i32 %13, 0
  br i1 %14, label %21, label %15

15:                                               ; preds = %12
  %16 = tail call i32 @strncmp(ptr noundef %0, ptr noundef nonnull @.str.4, i64 noundef %1) #17
  %17 = icmp eq i32 %16, 0
  br i1 %17, label %21, label %18

18:                                               ; preds = %15
  %19 = tail call i32 @strncmp(ptr noundef %0, ptr noundef nonnull @.str.5, i64 noundef %1) #17
  %20 = icmp eq i32 %19, 0
  br i1 %20, label %21, label %36

21:                                               ; preds = %18, %15, %12, %9
  %.0 = phi ptr [ @php_stream_socket_ops, %9 ], [ @php_stream_udp_socket_ops, %12 ], [ @php_stream_unix_socket_ops, %15 ], [ @php_stream_unixdg_socket_ops, %18 ]
  %.not = icmp eq ptr %4, null
  br i1 %.not, label %24, label %22

22:                                               ; preds = %21
  %23 = tail call noalias dereferenceable_or_null(40) ptr @__zend_malloc(i64 noundef 40) #18
  br label %26

24:                                               ; preds = %21
  %25 = tail call noalias ptr @_emalloc_40() #15
  br label %26

26:                                               ; preds = %24, %22
  %27 = phi ptr [ %23, %22 ], [ %25, %24 ]
  tail call void @llvm.memset.p0.i64(ptr noundef nonnull align 8 dereferenceable(40) %27, i8 0, i64 40, i1 false)
  %28 = getelementptr inbounds nuw i8, ptr %27, i64 4
  store i8 1, ptr %28, align 4, !tbaa !25
  %29 = load i64, ptr getelementptr inbounds nuw (i8, ptr @file_globals, i64 24), align 8, !tbaa !48
  %30 = getelementptr inbounds nuw i8, ptr %27, i64 8
  store i64 %29, ptr %30, align 8, !tbaa !24
  store i32 -1, ptr %27, align 8, !tbaa !21
  %31 = tail call ptr @_php_stream_alloc(ptr noundef nonnull %.0, ptr noundef nonnull %27, ptr noundef %4, ptr noundef nonnull @.str.6) #15
  %32 = icmp eq ptr %31, null
  br i1 %32, label %33, label %36

33:                                               ; preds = %26
  br i1 %.not, label %35, label %34

34:                                               ; preds = %33
  tail call void @free(ptr noundef nonnull %27) #15
  br label %36

35:                                               ; preds = %33
  tail call void @_efree(ptr noundef nonnull %27) #15
  br label %36

36:                                               ; preds = %26, %34, %35, %18
  %.022 = phi ptr [ null, %18 ], [ null, %35 ], [ null, %34 ], [ %31, %26 ]
  ret ptr %.022
}